; Function Attrs: mustprogress nounwind uwtable
define dso_local void @_ZN5clang14TextNodeDumper31VisitCXXUnresolvedConstructExprEPKNS_26CXXUnresolvedConstructExprE(ptr noundef nonnull align 8 dereferenceable(1168) %0, ptr nocapture noundef readonly %1) local_unnamed_addr #0 align 2 {
  %3 = getelementptr inbounds nuw i8, ptr %1, i64 16
  %.0.copyload.i.i.i.i.i = load i64, ptr %3, align 8
  %4 = and i64 %.0.copyload.i.i.i.i.i, -8
  %5 = inttoptr i64 %4 to ptr
  %.sroa.0.0.copyload.i.i = load i64, ptr %5, align 8
  %6 = getelementptr inbounds nuw i8, ptr %0, i64 1096
  %7 = load ptr, ptr %6, align 8
  %8 = getelementptr inbounds nuw i8, ptr %7, i64 32
  %9 = load ptr, ptr %8, align 8
  %10 = getelementptr inbounds nuw i8, ptr %7, i64 24
  %11 = load ptr, ptr %10, align 8
  %.not.i.i = icmp ult ptr %9, %11
  br i1 %.not.i.i, label %14, label %12

12:                                               ; preds = %2
  %13 = tail call noundef nonnull align 8 dereferenceable(48) ptr @_ZN4llvm11raw_ostream5writeEh(ptr noundef nonnull align 8 dereferenceable(48) %7, i8 noundef zeroext 32) #18
  br label %_ZN5clang14TextNodeDumper8dumpTypeENS_8QualTypeE.exit

14:                                               ; preds = %2
  %15 = getelementptr inbounds i8, ptr %9, i64 1
  store ptr %15, ptr %8, align 8
  store i8 32, ptr %9, align 1
  br label %_ZN5clang14TextNodeDumper8dumpTypeENS_8QualTypeE.exit

_ZN5clang14TextNodeDumper8dumpTypeENS_8QualTypeE.exit: ; preds = %12, %14
  tail call void @_ZN5clang14TextNodeDumper12dumpBareTypeENS_8QualTypeEb(ptr noundef nonnull align 8 dereferenceable(1168) %0, i64 %.sroa.0.0.copyload.i.i, i1 noundef zeroext true)
  %.0.copyload.i.i.i.i = load i64, ptr %3, align 8
  %16 = and i64 %.0.copyload.i.i.i.i, 4
  %.not = icmp eq i64 %16, 0
  br i1 %.not, label %_ZN4llvm11raw_ostreamlsEPKc.exit, label %17

17:                                               ; preds = %_ZN5clang14TextNodeDumper8dumpTypeENS_8QualTypeE.exit
  %18 = load ptr, ptr %6, align 8
  %19 = getelementptr inbounds nuw i8, ptr %18, i64 24
  %20 = load ptr, ptr %19, align 8
  %21 = getelementptr inbounds nuw i8, ptr %18, i64 32
  %22 = load ptr, ptr %21, align 8
  %23 = ptrtoint ptr %20 to i64
  %24 = ptrtoint ptr %22 to i64
  %25 = sub i64 %23, %24
  %26 = icmp ult i64 %25, 5
  br i1 %26, label %27, label %29

27:                                               ; preds = %17
  %28 = tail call noundef nonnull align 8 dereferenceable(48) ptr @_ZN4llvm11raw_ostream5writeEPKcm(ptr noundef nonnull align 8 dereferenceable(48) %18, ptr noundef nonnull @.str.620, i64 noundef 5) #18
  br label %_ZN4llvm11raw_ostreamlsEPKc.exit

29:                                               ; preds = %17
  tail call void @llvm.memcpy.p0.p0.i64(ptr noundef nonnull align 1 dereferenceable(5) %22, ptr noundef nonnull align 1 dereferenceable(5) @.str.620, i64 5, i1 false)
  %30 = load ptr, ptr %21, align 8
  %31 = getelementptr inbounds i8, ptr %30, i64 5
  store ptr %31, ptr %21, align 8
  br label %_ZN4llvm11raw_ostreamlsEPKc.exit

_ZN4llvm11raw_ostreamlsEPKc.exit:                 ; preds = %29, %27, %_ZN5clang14TextNodeDumper8dumpTypeENS_8QualTypeE.exit
  ret void
}